target datalayout = "e-m:e-p270:32:32-p271:32:32-p272:64:64-i64:64-i128:128-f80:128-n8:16:32:64-S128"
target triple = "x86_64-pc-linux-gnu"

%"struct.std::_Rb_tree_header" = type { %"struct.std::_Rb_tree_node_base", i64 }
%"struct.std::_Rb_tree_node_base" = type { i32, ptr, ptr, ptr }
%"class.std::_Rb_tree.255" = type { %"struct.std::_Rb_tree<const llvm::CodeGenIntrinsic *, std::pair<const llvm::CodeGenIntrinsic *const, unsigned int>, std::_Select1st<std::pair<const llvm::CodeGenIntrinsic *const, unsigned int>>, (anonymous namespace)::AttributeComparator>::_Rb_tree_impl" }
%"struct.std::_Rb_tree<const llvm::CodeGenIntrinsic *, std::pair<const llvm::CodeGenIntrinsic *const, unsigned int>, std::_Select1st<std::pair<const llvm::CodeGenIntrinsic *const, unsigned int>>, (anonymous namespace)::AttributeComparator>::_Rb_tree_impl" = type { [8 x i8], %"struct.std::_Rb_tree_header" }
%"struct.std::_Rb_tree_node.320" = type { %"struct.std::_Rb_tree_node_base", %"struct.__gnu_cxx::__aligned_membuf.321" }
%"struct.__gnu_cxx::__aligned_membuf.321" = type { [16 x i8] }

; Function Attrs: mustprogress nounwind uwtable
define linkonce_odr hidden noundef ptr @_ZN9__gnu_cxx16__aligned_membufISt4pairIKPKN4llvm16CodeGenIntrinsicEjEE7_M_addrEv(ptr noundef nonnull align 8 dereferenceable(16) %0) #1 comdat align 2 {
  %2 = alloca ptr, align 8
  store ptr %0, ptr %2, align 8
  %3 = load ptr, ptr %2, align 8
  %4 = getelementptr inbounds nuw %"struct.__gnu_cxx::__aligned_membuf.321", ptr %3, i32 0, i32 0
  ret ptr %4
}

; Function Attrs: mustprogress nounwind uwtable
define linkonce_odr hidden void @_ZNSt15__new_allocatorISt13_Rb_tree_nodeISt4pairIKPKN4llvm16CodeGenIntrinsicEjEEE10deallocateEPS8_m(ptr noundef nonnull align 1 dereferenceable(1) %0, ptr noundef %1, i64 noundef %2) #1 comdat align 2 {
  %4 = alloca ptr, align 8
  %5 = alloca ptr, align 8
  %6 = alloca i64, align 8
  store ptr %0, ptr %4, align 8
  store ptr %1, ptr %5, align 8
  store i64 %2, ptr %6, align 8
  %7 = load ptr, ptr %5, align 8
  %8 = load i64, ptr %6, align 8
  %9 = mul i64 %8, 48
  call void @_ZdlPvm(ptr noundef %7, i64 noundef %9) #17
  ret void
}

; Function Attrs: mustprogress nounwind uwtable
define linkonce_odr hidden void @_ZNSt15__new_allocatorISt13_Rb_tree_nodeISt4pairIKPKN4llvm16CodeGenIntrinsicEjEEE7destroyIS7_EEvPT_(ptr noundef nonnull align 1 dereferenceable(1) %0, ptr noundef %1) #1 comdat align 2 {
  %3 = alloca ptr, align 8
  %4 = alloca ptr, align 8
  store ptr %0, ptr %3, align 8
  store ptr %1, ptr %4, align 8
  ret void
}

; Function Attrs: mustprogress nounwind uwtable
define linkonce_odr hidden noundef ptr @_ZN9__gnu_cxx16__aligned_membufISt4pairIKPKN4llvm16CodeGenIntrinsicEjEE6_M_ptrEv(ptr noundef nonnull align 8 dereferenceable(16) %0) #1 comdat align 2 {
  %2 = alloca ptr, align 8
  store ptr %0, ptr %2, align 8
  %3 = load ptr, ptr %2, align 8
  %4 = call noundef ptr @_ZN9__gnu_cxx16__aligned_membufISt4pairIKPKN4llvm16CodeGenIntrinsicEjEE7_M_addrEv(ptr noundef nonnull align 8 dereferenceable(16) %3) #2
  ret ptr %4
}

; Function Attrs: mustprogress nounwind uwtable
define linkonce_odr hidden void @_ZNSt16allocator_traitsISaISt13_Rb_tree_nodeISt4pairIKPKN4llvm16CodeGenIntrinsicEjEEEE10deallocateERS9_PS8_m(ptr noundef nonnull align 1 dereferenceable(1) %0, ptr noundef %1, i64 noundef %2) #1 comdat align 2 {
  %4 = alloca ptr, align 8
  %5 = alloca ptr, align 8
  %6 = alloca i64, align 8
  store ptr %0, ptr %4, align 8
  store ptr %1, ptr %5, align 8
  store i64 %2, ptr %6, align 8
  %7 = load ptr, ptr %4, align 8
  %8 = load ptr, ptr %5, align 8
  %9 = load i64, ptr %6, align 8
  call void @_ZNSt15__new_allocatorISt13_Rb_tree_nodeISt4pairIKPKN4llvm16CodeGenIntrinsicEjEEE10deallocateEPS8_m(ptr noundef nonnull align 1 dereferenceable(1) %7, ptr noundef %8, i64 noundef %9)
  ret void
}

; Function Attrs: mustprogress nounwind uwtable
define linkonce_odr hidden void @_ZNSt16allocator_traitsISaISt13_Rb_tree_nodeISt4pairIKPKN4llvm16CodeGenIntrinsicEjEEEE7destroyIS7_EEvRS9_PT_(ptr noundef nonnull align 1 dereferenceable(1) %0, ptr noundef %1) #1 comdat align 2 {
  %3 = alloca ptr, align 8
  %4 = alloca ptr, align 8
  store ptr %0, ptr %3, align 8
  store ptr %1, ptr %4, align 8
  %5 = load ptr, ptr %3, align 8
  %6 = load ptr, ptr %4, align 8
  call void @_ZNSt15__new_allocatorISt13_Rb_tree_nodeISt4pairIKPKN4llvm16CodeGenIntrinsicEjEEE7destroyIS7_EEvPT_(ptr noundef nonnull align 1 dereferenceable(1) %5, ptr noundef %6) #2
  ret void
}

; Function Attrs: mustprogress nounwind uwtable
define linkonce_odr hidden noundef ptr @_ZNSt13_Rb_tree_nodeISt4pairIKPKN4llvm16CodeGenIntrinsicEjEE9_M_valptrEv(ptr noundef nonnull align 8 dereferenceable(48) %0) #1 comdat align 2 {
  %2 = alloca ptr, align 8
  store ptr %0, ptr %2, align 8
  %3 = load ptr, ptr %2, align 8
  %4 = getelementptr inbounds nuw %"struct.std::_Rb_tree_node.320", ptr %3, i32 0, i32 1
  %5 = call noundef ptr @_ZN9__gnu_cxx16__aligned_membufISt4pairIKPKN4llvm16CodeGenIntrinsicEjEE6_M_ptrEv(ptr noundef nonnull align 8 dereferenceable(16) %4) #2
  ret ptr %5
}

; Function Attrs: mustprogress nounwind uwtable
define internal noundef nonnull align 1 dereferenceable(1) ptr @_ZNSt8_Rb_treeIPKN4llvm16CodeGenIntrinsicESt4pairIKS3_jESt10_Select1stIS6_EN12_GLOBAL__N_119AttributeComparatorESaIS6_EE21_M_get_Node_allocatorEv(ptr noundef nonnull align 8 dereferenceable(48) %0) #1 align 2 {
  %2 = alloca ptr, align 8
  store ptr %0, ptr %2, align 8
  %3 = load ptr, ptr %2, align 8
  %4 = getelementptr inbounds nuw %"class.std::_Rb_tree.255", ptr %3, i32 0, i32 0
  ret ptr %4
}

; Function Attrs: mustprogress nounwind uwtable
define internal void @_ZNSt8_Rb_treeIPKN4llvm16CodeGenIntrinsicESt4pairIKS3_jESt10_Select1stIS6_EN12_GLOBAL__N_119AttributeComparatorESaIS6_EE11_M_put_nodeEPSt13_Rb_tree_nodeIS6_E(ptr noundef nonnull align 8 dereferenceable(48) %0, ptr noundef %1) #1 align 2 {
  %3 = alloca ptr, align 8
  %4 = alloca ptr, align 8
  store ptr %0, ptr %3, align 8
  store ptr %1, ptr %4, align 8
  %5 = load ptr, ptr %3, align 8
  %6 = call noundef nonnull align 1 dereferenceable(1) ptr @_ZNSt8_Rb_treeIPKN4llvm16CodeGenIntrinsicESt4pairIKS3_jESt10_Select1stIS6_EN12_GLOBAL__N_119AttributeComparatorESaIS6_EE21_M_get_Node_allocatorEv(ptr noundef nonnull align 8 dereferenceable(48) %5) #2
  %7 = load ptr, ptr %4, align 8
  call void @_ZNSt16allocator_traitsISaISt13_Rb_tree_nodeISt4pairIKPKN4llvm16CodeGenIntrinsicEjEEEE10deallocateERS9_PS8_m(ptr noundef nonnull align 1 dereferenceable(1) %6, ptr noundef %7, i64 noundef 1)
  ret void
}

; Function Attrs: mustprogress nounwind uwtable
define internal void @_ZNSt8_Rb_treeIPKN4llvm16CodeGenIntrinsicESt4pairIKS3_jESt10_Select1stIS6_EN12_GLOBAL__N_119AttributeComparatorESaIS6_EE15_M_destroy_nodeEPSt13_Rb_tree_nodeIS6_E(ptr noundef nonnull align 8 dereferenceable(48) %0, ptr noundef %1) #1 align 2 {
  %3 = alloca ptr, align 8
  %4 = alloca ptr, align 8
  store ptr %0, ptr %3, align 8
  store ptr %1, ptr %4, align 8
  %5 = load ptr, ptr %3, align 8
  %6 = call noundef nonnull align 1 dereferenceable(1) ptr @_ZNSt8_Rb_treeIPKN4llvm16CodeGenIntrinsicESt4pairIKS3_jESt10_Select1stIS6_EN12_GLOBAL__N_119AttributeComparatorESaIS6_EE21_M_get_Node_allocatorEv(ptr noundef nonnull align 8 dereferenceable(48) %5) #2
  %7 = load ptr, ptr %4, align 8
  %8 = call noundef ptr @_ZNSt13_Rb_tree_nodeISt4pairIKPKN4llvm16CodeGenIntrinsicEjEE9_M_valptrEv(ptr noundef nonnull align 8 dereferenceable(48) %7)
  call void @_ZNSt16allocator_traitsISaISt13_Rb_tree_nodeISt4pairIKPKN4llvm16CodeGenIntrinsicEjEEEE7destroyIS7_EEvRS9_PT_(ptr noundef nonnull align 1 dereferenceable(1) %6, ptr noundef %8) #2
  ret void
}

; Function Attrs: mustprogress nounwind uwtable
define internal void @_ZNSt8_Rb_treeIPKN4llvm16CodeGenIntrinsicESt4pairIKS3_jESt10_Select1stIS6_EN12_GLOBAL__N_119AttributeComparatorESaIS6_EE12_M_drop_nodeEPSt13_Rb_tree_nodeIS6_E(ptr noundef nonnull align 8 dereferenceable(48) %0, ptr noundef %1) #1 align 2 {
  %3 = alloca ptr, align 8
  %4 = alloca ptr, align 8
  store ptr %0, ptr %3, align 8
  store ptr %1, ptr %4, align 8
  %5 = load ptr, ptr %3, align 8
  %6 = load ptr, ptr %4, align 8
  call void @_ZNSt8_Rb_treeIPKN4llvm16CodeGenIntrinsicESt4pairIKS3_jESt10_Select1stIS6_EN12_GLOBAL__N_119AttributeComparatorESaIS6_EE15_M_destroy_nodeEPSt13_Rb_tree_nodeIS6_E(ptr noundef nonnull align 8 dereferenceable(48) %5, ptr noundef %6) #2
  %7 = load ptr, ptr %4, align 8
  call void @_ZNSt8_Rb_treeIPKN4llvm16CodeGenIntrinsicESt4pairIKS3_jESt10_Select1stIS6_EN12_GLOBAL__N_119AttributeComparatorESaIS6_EE11_M_put_nodeEPSt13_Rb_tree_nodeIS6_E(ptr noundef nonnull align 8 dereferenceable(48) %5, ptr noundef %7) #2
  ret void
}

; Function Attrs: mustprogress nounwind uwtable
define internal noundef ptr @_ZNSt8_Rb_treeIPKN4llvm16CodeGenIntrinsicESt4pairIKS3_jESt10_Select1stIS6_EN12_GLOBAL__N_119AttributeComparatorESaIS6_EE7_S_leftEPSt18_Rb_tree_node_base(ptr noundef %0) #1 align 2 {
  %2 = alloca ptr, align 8
  store ptr %0, ptr %2, align 8
  %3 = load ptr, ptr %2, align 8
  %4 = getelementptr inbounds nuw %"struct.std::_Rb_tree_node_base", ptr %3, i32 0, i32 2
  %5 = load ptr, ptr %4, align 8
  ret ptr %5
}

; Function Attrs: mustprogress nounwind uwtable
define internal noundef ptr @_ZNSt8_Rb_treeIPKN4llvm16CodeGenIntrinsicESt4pairIKS3_jESt10_Select1stIS6_EN12_GLOBAL__N_119AttributeComparatorESaIS6_EE8_S_rightEPSt18_Rb_tree_node_base(ptr noundef %0) #1 align 2 {
  %2 = alloca ptr, align 8
  store ptr %0, ptr %2, align 8
  %3 = load ptr, ptr %2, align 8
  %4 = getelementptr inbounds nuw %"struct.std::_Rb_tree_node_base", ptr %3, i32 0, i32 3
  %5 = load ptr, ptr %4, align 8
  ret ptr %5
}

; Function Attrs: mustprogress nounwind uwtable
define internal void @_ZNSt8_Rb_treeIPKN4llvm16CodeGenIntrinsicESt4pairIKS3_jESt10_Select1stIS6_EN12_GLOBAL__N_119AttributeComparatorESaIS6_EE8_M_eraseEPSt13_Rb_tree_nodeIS6_E(ptr noundef nonnull align 8 dereferenceable(48) %0, ptr noundef %1) #1 align 2 {
  %3 = alloca ptr, align 8
  %4 = alloca ptr, align 8
  %5 = alloca ptr, align 8
  store ptr %0, ptr %3, align 8
  store ptr %1, ptr %4, align 8
  %6 = load ptr, ptr %3, align 8
  br label %7

7:                                                ; preds = %10, %2
  %8 = load ptr, ptr %4, align 8
  %9 = icmp ne ptr %8, null
  br i1 %9, label %10, label %17

10:                                               ; preds = %7
  %11 = load ptr, ptr %4, align 8
  %12 = call noundef ptr @_ZNSt8_Rb_treeIPKN4llvm16CodeGenIntrinsicESt4pairIKS3_jESt10_Select1stIS6_EN12_GLOBAL__N_119AttributeComparatorESaIS6_EE8_S_rightEPSt18_Rb_tree_node_base(ptr noundef %11) #2
  call void @_ZNSt8_Rb_treeIPKN4llvm16CodeGenIntrinsicESt4pairIKS3_jESt10_Select1stIS6_EN12_GLOBAL__N_119AttributeComparatorESaIS6_EE8_M_eraseEPSt13_Rb_tree_nodeIS6_E(ptr noundef nonnull align 8 dereferenceable(48) %6, ptr noundef %12)
  %13 = load ptr, ptr %4, align 8
  %14 = call noundef ptr @_ZNSt8_Rb_treeIPKN4llvm16CodeGenIntrinsicESt4pairIKS3_jESt10_Select1stIS6_EN12_GLOBAL__N_119AttributeComparatorESaIS6_EE7_S_leftEPSt18_Rb_tree_node_base(ptr noundef %13) #2
  store ptr %14, ptr %5, align 8
  %15 = load ptr, ptr %4, align 8
  call void @_ZNSt8_Rb_treeIPKN4llvm16CodeGenIntrinsicESt4pairIKS3_jESt10_Select1stIS6_EN12_GLOBAL__N_119AttributeComparatorESaIS6_EE12_M_drop_nodeEPSt13_Rb_tree_nodeIS6_E(ptr noundef nonnull align 8 dereferenceable(48) %6, ptr noundef %15) #2
  %16 = load ptr, ptr %5, align 8
  store ptr %16, ptr %4, align 8
  br label %7, !llvm.loop !25

17:                                               ; preds = %7
  ret void
}